; Function Attrs: nounwind uwtable
define nonnull ptr @l_Lean_Server_FileWorker_locationLinksOfInfo___lambda__11___boxed(ptr noundef %0, ptr noundef %1) #0 {
  %3 = ptrtoint ptr %1 to i64
  %4 = and i64 %3, 1
  %.not.i.i = icmp eq i64 %4, 0
  br i1 %.not.i.i, label %8, label %5

5:                                                ; preds = %2
  %6 = lshr i64 %3, 1
  %7 = trunc i64 %6 to i32
  br label %lean_obj_tag.exit.i

8:                                                ; preds = %2
  %9 = getelementptr i8, ptr %1, i64 4
  %.val.i.i = load i32, ptr %9, align 4
  %10 = lshr i32 %.val.i.i, 24
  br label %lean_obj_tag.exit.i

lean_obj_tag.exit.i:                              ; preds = %8, %5
  %.0.i.i = phi i32 [ %7, %5 ], [ %10, %8 ]
  %11 = icmp eq i32 %.0.i.i, 1
  br i1 %11, label %12, label %l_Lean_Server_FileWorker_locationLinksOfInfo___lambda__11.exit

12:                                               ; preds = %lean_obj_tag.exit.i
  %13 = getelementptr inbounds nuw i8, ptr %1, i64 8
  %14 = load ptr, ptr %13, align 8, !tbaa !10
  %15 = getelementptr inbounds nuw i8, ptr %14, i64 32
  %16 = load ptr, ptr %15, align 8, !tbaa !10
  %17 = ptrtoint ptr %16 to i64
  %18 = and i64 %17, 1
  %.not.i13.i = icmp eq i64 %18, 0
  br i1 %.not.i13.i, label %22, label %19

19:                                               ; preds = %12
  %20 = lshr i64 %17, 1
  %21 = trunc i64 %20 to i32
  br label %lean_obj_tag.exit16.i

22:                                               ; preds = %12
  %23 = getelementptr i8, ptr %16, i64 4
  %.val.i15.i = load i32, ptr %23, align 4
  %24 = lshr i32 %.val.i15.i, 24
  br label %lean_obj_tag.exit16.i

lean_obj_tag.exit16.i:                            ; preds = %22, %19
  %.0.i14.i = phi i32 [ %21, %19 ], [ %24, %22 ]
  %25 = icmp eq i32 %.0.i14.i, 1
  br i1 %25, label %26, label %l_Lean_Server_FileWorker_locationLinksOfInfo___lambda__11.exit

26:                                               ; preds = %lean_obj_tag.exit16.i
  %27 = getelementptr inbounds nuw i8, ptr %14, i64 40
  %28 = load i8, ptr %27, align 1, !tbaa !17
  %29 = icmp eq i8 %28, 0
  br i1 %29, label %l_Lean_Server_FileWorker_locationLinksOfInfo___lambda__11.exit, label %30

30:                                               ; preds = %26
  %31 = getelementptr inbounds nuw i8, ptr %16, i64 8
  %32 = load ptr, ptr %31, align 8, !tbaa !10
  %33 = tail call zeroext i8 @lean_name_eq(ptr noundef %32, ptr noundef %0) #8
  %34 = zext i8 %33 to i64
  %35 = shl nuw nsw i64 %34, 1
  %36 = or disjoint i64 %35, 1
  br label %l_Lean_Server_FileWorker_locationLinksOfInfo___lambda__11.exit

l_Lean_Server_FileWorker_locationLinksOfInfo___lambda__11.exit: ; preds = %lean_obj_tag.exit.i, %lean_obj_tag.exit16.i, %26, %30
  %.2.i = phi i64 [ %36, %30 ], [ 1, %26 ], [ 1, %lean_obj_tag.exit16.i ], [ 1, %lean_obj_tag.exit.i ]
  br i1 %.not.i.i, label %37, label %lean_dec.exit5

37:                                               ; preds = %l_Lean_Server_FileWorker_locationLinksOfInfo___lambda__11.exit
  %38 = load i32, ptr %1, align 4, !tbaa !4
  %39 = icmp sgt i32 %38, 1
  br i1 %39, label %40, label %42, !prof !9

40:                                               ; preds = %37
  %41 = add nsw i32 %38, -1
  store i32 %41, ptr %1, align 4, !tbaa !4
  br label %lean_dec.exit5

42:                                               ; preds = %37
  %.not.i = icmp eq i32 %38, 0
  br i1 %.not.i, label %lean_dec.exit5, label %43

43:                                               ; preds = %42
  tail call void @lean_dec_ref_cold(ptr noundef nonnull %1) #8
  br label %lean_dec.exit5

lean_dec.exit5:                                   ; preds = %43, %42, %40, %l_Lean_Server_FileWorker_locationLinksOfInfo___lambda__11.exit
  %44 = ptrtoint ptr %0 to i64
  %45 = and i64 %44, 1
  %.not8 = icmp eq i64 %45, 0
  br i1 %.not8, label %46, label %lean_dec.exit

46:                                               ; preds = %lean_dec.exit5
  %47 = load i32, ptr %0, align 4, !tbaa !4
  %48 = icmp sgt i32 %47, 1
  br i1 %48, label %49, label %51, !prof !9

49:                                               ; preds = %46
  %50 = add nsw i32 %47, -1
  store i32 %50, ptr %0, align 4, !tbaa !4
  br label %lean_dec.exit

51:                                               ; preds = %46
  %.not.i6 = icmp eq i32 %47, 0
  br i1 %.not.i6, label %lean_dec.exit, label %52

52:                                               ; preds = %51
  tail call void @lean_dec_ref_cold(ptr noundef nonnull %0) #8
  br label %lean_dec.exit

lean_dec.exit:                                    ; preds = %52, %51, %49, %lean_dec.exit5
  %53 = inttoptr i64 %.2.i to ptr
  ret ptr %53
}